target datalayout = "e-m:e-p270:32:32-p271:32:32-p272:64:64-i64:64-i128:128-f80:128-n8:16:32:64-S128"
target triple = "x86_64-pc-linux-gnu"

%struct.t_mde_delta_h_coll = type { %"class.std::vector", i32, i32, i32, i32, i32, i32, i32, i32, double, double, i8, double, double, double, %"class.std::vector.0", i32, %"class.std::vector.5", i32, %"class.std::vector.0", %"class.std::vector.5" }
%"class.std::vector" = type { %"struct.std::_Vector_base" }
%"struct.std::_Vector_base" = type { %"struct.std::_Vector_base<t_mde_delta_h, std::allocator<t_mde_delta_h>>::_Vector_impl" }
%"struct.std::_Vector_base<t_mde_delta_h, std::allocator<t_mde_delta_h>>::_Vector_impl" = type { %"struct.std::_Vector_base<t_mde_delta_h, std::allocator<t_mde_delta_h>>::_Vector_impl_data" }
%"struct.std::_Vector_base<t_mde_delta_h, std::allocator<t_mde_delta_h>>::_Vector_impl_data" = type { ptr, ptr, ptr }
%"class.std::vector.0" = type { %"struct.std::_Vector_base.1" }
%"struct.std::_Vector_base.1" = type { %"struct.std::_Vector_base<double, std::allocator<double>>::_Vector_impl" }
%"struct.std::_Vector_base<double, std::allocator<double>>::_Vector_impl" = type { %"struct.std::_Vector_base<double, std::allocator<double>>::_Vector_impl_data" }
%"struct.std::_Vector_base<double, std::allocator<double>>::_Vector_impl_data" = type { ptr, ptr, ptr }
%"class.std::vector.5" = type { %"struct.std::_Vector_base.6" }
%"struct.std::_Vector_base.6" = type { %"struct.std::_Vector_base<int, std::allocator<int>>::_Vector_impl" }
%"struct.std::_Vector_base<int, std::allocator<int>>::_Vector_impl" = type { %"struct.std::_Vector_base<int, std::allocator<int>>::_Vector_impl_data" }
%"struct.std::_Vector_base<int, std::allocator<int>>::_Vector_impl_data" = type { ptr, ptr, ptr }
%"class.std::vector.71" = type { %"struct.std::_Vector_base.72" }
%"struct.std::_Vector_base.72" = type { %"struct.std::_Vector_base<float, std::allocator<float>>::_Vector_impl" }
%"struct.std::_Vector_base<float, std::allocator<float>>::_Vector_impl" = type { %"struct.std::_Vector_base<float, std::allocator<float>>::_Vector_impl_data" }
%"struct.std::_Vector_base<float, std::allocator<float>>::_Vector_impl_data" = type { ptr, ptr, ptr }
%struct.t_mde_delta_h = type { %"class.std::vector.71", %"class.std::vector.71", i32, i32, i32, %"struct.std::array", double, i32, %"struct.std::array.76", %"struct.std::array.77", i32, i32, %"class.std::vector.0", i32, i8, %"struct.std::array.78", %"class.std::vector.0", %"struct.std::array.79" }
%"struct.std::array" = type { [2 x %"class.std::vector.5"] }
%"struct.std::array.76" = type { [2 x i64] }
%"struct.std::array.77" = type { [2 x i32] }
%"struct.std::array.78" = type { [5 x i64] }
%"struct.std::array.79" = type { [4 x i32] }
%"class.gmx::ArrayRef" = type { %"struct.gmx::ArrayRefIter", %"struct.gmx::ArrayRefIter" }
%"struct.gmx::ArrayRefIter" = type { ptr }

; Function Attrs: mustprogress nounwind uwtable
define linkonce_odr noundef nonnull align 8 dereferenceable(8) ptr @_ZNK3gmx12ArrayRefIterIdEdeEv(ptr noundef nonnull align 8 dereferenceable(8) %0) #1 comdat align 2 {
  %2 = alloca ptr, align 8
  store ptr %0, ptr %2, align 8, !tbaa !370
  %3 = load ptr, ptr %2, align 8
  %4 = getelementptr inbounds nuw %"struct.gmx::ArrayRefIter", ptr %3, i32 0, i32 0
  %5 = load ptr, ptr %4, align 8, !tbaa !372
  ret ptr %5
}

; Function Attrs: mustprogress nounwind uwtable
define linkonce_odr noundef nonnull align 8 dereferenceable(8) ptr @_ZN3gmx12ArrayRefIterIdEpLEl(ptr noundef nonnull align 8 dereferenceable(8) %0, i64 noundef %1) #1 comdat align 2 {
  %3 = alloca ptr, align 8
  %4 = alloca i64, align 8
  store ptr %0, ptr %3, align 8, !tbaa !370
  store i64 %1, ptr %4, align 8, !tbaa !197
  %5 = load ptr, ptr %3, align 8
  %6 = load i64, ptr %4, align 8, !tbaa !197
  %7 = getelementptr inbounds nuw %"struct.gmx::ArrayRefIter", ptr %5, i32 0, i32 0
  %8 = load ptr, ptr %7, align 8, !tbaa !372
  %9 = getelementptr inbounds double, ptr %8, i64 %6
  store ptr %9, ptr %7, align 8, !tbaa !372
  ret ptr %5
}

; Function Attrs: mustprogress nounwind uwtable
define linkonce_odr noundef nonnull align 8 dereferenceable(8) ptr @_ZNK3gmx5boost14stl_interfaces2v118iterator_interfaceINS_12ArrayRefIterIdEESt26random_access_iterator_tagdRdPdlvE7derivedEv(ptr noundef nonnull align 1 dereferenceable(1) %0) #1 comdat align 2 {
  %2 = alloca ptr, align 8
  store ptr %0, ptr %2, align 8, !tbaa !368
  %3 = load ptr, ptr %2, align 8
  ret ptr %3
}

; Function Attrs: mustprogress nounwind uwtable
define linkonce_odr noundef nonnull align 8 dereferenceable(8) ptr @_ZNK3gmx5boost14stl_interfaces2v118iterator_interfaceINS_12ArrayRefIterIdEESt26random_access_iterator_tagdRdPdlvEixIS5_EEDTcmpLclsr3stdE7declvalIRT_EEfp_declsr3stdE7declvalISC_EEEl(ptr noundef nonnull align 1 dereferenceable(1) %0, i64 noundef %1) #1 comdat align 2 {
  %3 = alloca ptr, align 8
  %4 = alloca i64, align 8
  %5 = alloca %"struct.gmx::ArrayRefIter", align 8
  store ptr %0, ptr %3, align 8, !tbaa !368
  store i64 %1, ptr %4, align 8, !tbaa !197
  %6 = load ptr, ptr %3, align 8
  call void @llvm.lifetime.start.p0(i64 8, ptr %5) #17
  %7 = call noundef nonnull align 8 dereferenceable(8) ptr @_ZNK3gmx5boost14stl_interfaces2v118iterator_interfaceINS_12ArrayRefIterIdEESt26random_access_iterator_tagdRdPdlvE7derivedEv(ptr noundef nonnull align 1 dereferenceable(1) %6) #17
  call void @llvm.memcpy.p0.p0.i64(ptr align 8 %5, ptr align 8 %7, i64 8, i1 false)
  %8 = load i64, ptr %4, align 8, !tbaa !197
  %9 = call noundef nonnull align 8 dereferenceable(8) ptr @_ZN3gmx12ArrayRefIterIdEpLEl(ptr noundef nonnull align 8 dereferenceable(8) %5, i64 noundef %8) #17
  %10 = call noundef nonnull align 8 dereferenceable(8) ptr @_ZNK3gmx12ArrayRefIterIdEdeEv(ptr noundef nonnull align 8 dereferenceable(8) %5) #17
  call void @llvm.lifetime.end.p0(i64 8, ptr %5) #17
  ret ptr %10
}

; Function Attrs: mustprogress nounwind uwtable
define linkonce_odr noundef nonnull align 8 dereferenceable(8) ptr @_ZNK3gmx8ArrayRefIdEixEm(ptr noundef nonnull align 8 dereferenceable(16) %0, i64 noundef %1) #1 comdat align 2 {
  %3 = alloca ptr, align 8
  %4 = alloca i64, align 8
  store ptr %0, ptr %3, align 8, !tbaa !315
  store i64 %1, ptr %4, align 8, !tbaa !197
  %5 = load ptr, ptr %3, align 8
  %6 = getelementptr inbounds nuw %"class.gmx::ArrayRef", ptr %5, i32 0, i32 0
  %7 = load i64, ptr %4, align 8, !tbaa !197
  %8 = call noundef nonnull align 8 dereferenceable(8) ptr @_ZNK3gmx5boost14stl_interfaces2v118iterator_interfaceINS_12ArrayRefIterIdEESt26random_access_iterator_tagdRdPdlvEixIS5_EEDTcmpLclsr3stdE7declvalIRT_EEfp_declsr3stdE7declvalISC_EEEl(ptr noundef nonnull align 1 dereferenceable(1) %6, i64 noundef %7) #17
  ret ptr %8
}

; Function Attrs: mustprogress nounwind uwtable
define linkonce_odr noundef nonnull align 8 dereferenceable(272) ptr @_ZNSt6vectorI13t_mde_delta_hSaIS0_EEixEm(ptr noundef nonnull align 8 dereferenceable(24) %0, i64 noundef %1) #1 comdat align 2 {
  %3 = alloca ptr, align 8
  %4 = alloca i64, align 8
  store ptr %0, ptr %3, align 8, !tbaa !179
  store i64 %1, ptr %4, align 8, !tbaa !197
  %5 = load ptr, ptr %3, align 8
  %6 = getelementptr inbounds nuw %"struct.std::_Vector_base", ptr %5, i32 0, i32 0
  %7 = getelementptr inbounds nuw %"struct.std::_Vector_base<t_mde_delta_h, std::allocator<t_mde_delta_h>>::_Vector_impl_data", ptr %6, i32 0, i32 0
  %8 = load ptr, ptr %7, align 8, !tbaa !204
  %9 = load i64, ptr %4, align 8, !tbaa !197
  %10 = getelementptr inbounds nuw %struct.t_mde_delta_h, ptr %8, i64 %9
  ret ptr %10
}

; Function Attrs: mustprogress uwtable
define void @_Z23mde_delta_h_coll_add_dhP18t_mde_delta_h_colldddN3gmx8ArrayRefIdEEPdd(ptr noundef %0, double noundef %1, double noundef %2, double noundef %3, ptr %4, ptr %5, ptr noundef %6, double noundef %7) #0 {
  %9 = alloca %"class.gmx::ArrayRef", align 8
  %10 = alloca ptr, align 8
  %11 = alloca double, align 8
  %12 = alloca double, align 8
  %13 = alloca double, align 8
  %14 = alloca ptr, align 8
  %15 = alloca double, align 8
  %16 = alloca i32, align 4
  %17 = getelementptr inbounds nuw { ptr, ptr }, ptr %9, i32 0, i32 0
  store ptr %4, ptr %17, align 8
  %18 = getelementptr inbounds nuw { ptr, ptr }, ptr %9, i32 0, i32 1
  store ptr %5, ptr %18, align 8
  store ptr %0, ptr %10, align 8, !tbaa !4
  store double %1, ptr %11, align 8, !tbaa !151
  store double %2, ptr %12, align 8, !tbaa !151
  store double %3, ptr %13, align 8, !tbaa !151
  store ptr %6, ptr %14, align 8, !tbaa !176
  store double %7, ptr %15, align 8, !tbaa !151
  call void @llvm.lifetime.start.p0(i64 4, ptr %16) #17
  %19 = load ptr, ptr %10, align 8, !tbaa !4
  %20 = getelementptr inbounds nuw %struct.t_mde_delta_h_coll, ptr %19, i32 0, i32 11
  %21 = load i8, ptr %20, align 8, !tbaa !135, !range !148, !noundef !149
  %22 = trunc i8 %21 to i1
  br i1 %22, label %29, label %23

23:                                               ; preds = %8
  %24 = load ptr, ptr %10, align 8, !tbaa !4
  %25 = getelementptr inbounds nuw %struct.t_mde_delta_h_coll, ptr %24, i32 0, i32 11
  store i8 1, ptr %25, align 8, !tbaa !135
  %26 = load double, ptr %15, align 8, !tbaa !151
  %27 = load ptr, ptr %10, align 8, !tbaa !4
  %28 = getelementptr inbounds nuw %struct.t_mde_delta_h_coll, ptr %27, i32 0, i32 9
  store double %26, ptr %28, align 8, !tbaa !124
  br label %29

29:                                               ; preds = %23, %8
  store i32 0, ptr %16, align 4, !tbaa !107
  br label %30

30:                                               ; preds = %50, %29
  %31 = load i32, ptr %16, align 4, !tbaa !107
  %32 = load ptr, ptr %10, align 8, !tbaa !4
  %33 = getelementptr inbounds nuw %struct.t_mde_delta_h_coll, ptr %32, i32 0, i32 4
  %34 = load i32, ptr %33, align 4, !tbaa !153
  %35 = icmp slt i32 %31, %34
  br i1 %35, label %36, label %53

36:                                               ; preds = %30
  %37 = load ptr, ptr %10, align 8, !tbaa !4
  %38 = getelementptr inbounds nuw %struct.t_mde_delta_h_coll, ptr %37, i32 0, i32 0
  %39 = load ptr, ptr %10, align 8, !tbaa !4
  %40 = getelementptr inbounds nuw %struct.t_mde_delta_h_coll, ptr %39, i32 0, i32 5
  %41 = load i32, ptr %40, align 8, !tbaa !174
  %42 = load i32, ptr %16, align 4, !tbaa !107
  %43 = add nsw i32 %41, %42
  %44 = sext i32 %43 to i64
  %45 = call noundef nonnull align 8 dereferenceable(272) ptr @_ZNSt6vectorI13t_mde_delta_hSaIS0_EEixEm(ptr noundef nonnull align 8 dereferenceable(24) %38, i64 noundef %44) #17
  %46 = load i32, ptr %16, align 4, !tbaa !107
  %47 = sext i32 %46 to i64
  %48 = call noundef nonnull align 8 dereferenceable(8) ptr @_ZNK3gmx8ArrayRefIdEixEm(ptr noundef nonnull align 8 dereferenceable(16) %9, i64 noundef %47)
  %49 = load double, ptr %48, align 8, !tbaa !151
  call void @_ZL18mde_delta_h_add_dhP13t_mde_delta_hd(ptr noundef %45, double noundef %49)
  br label %50

50:                                               ; preds = %36
  %51 = load i32, ptr %16, align 4, !tbaa !107
  %52 = add nsw i32 %51, 1
  store i32 %52, ptr %16, align 4, !tbaa !107
  br label %30, !llvm.loop !313

53:                                               ; preds = %30
  store i32 0, ptr %16, align 4, !tbaa !107
  br label %54

54:                                               ; preds = %75, %53
  %55 = load i32, ptr %16, align 4, !tbaa !107
  %56 = load ptr, ptr %10, align 8, !tbaa !4
  %57 = getelementptr inbounds nuw %struct.t_mde_delta_h_coll, ptr %56, i32 0, i32 2
  %58 = load i32, ptr %57, align 4, !tbaa !152
  %59 = icmp slt i32 %55, %58
  br i1 %59, label %60, label %78

60:                                               ; preds = %54
  %61 = load ptr, ptr %10, align 8, !tbaa !4
  %62 = getelementptr inbounds nuw %struct.t_mde_delta_h_coll, ptr %61, i32 0, i32 0
  %63 = load ptr, ptr %10, align 8, !tbaa !4
  %64 = getelementptr inbounds nuw %struct.t_mde_delta_h_coll, ptr %63, i32 0, i32 3
  %65 = load i32, ptr %64, align 8, !tbaa !175
  %66 = load i32, ptr %16, align 4, !tbaa !107
  %67 = add nsw i32 %65, %66
  %68 = sext i32 %67 to i64
  %69 = call noundef nonnull align 8 dereferenceable(272) ptr @_ZNSt6vectorI13t_mde_delta_hSaIS0_EEixEm(ptr noundef nonnull align 8 dereferenceable(24) %62, i64 noundef %68) #17
  %70 = load ptr, ptr %14, align 8, !tbaa !176
  %71 = load i32, ptr %16, align 4, !tbaa !107
  %72 = sext i32 %71 to i64
  %73 = getelementptr inbounds double, ptr %70, i64 %72
  %74 = load double, ptr %73, align 8, !tbaa !151
  call void @_ZL18mde_delta_h_add_dhP13t_mde_delta_hd(ptr noundef %69, double noundef %74)
  br label %75

75:                                               ; preds = %60
  %76 = load i32, ptr %16, align 4, !tbaa !107
  %77 = add nsw i32 %76, 1
  store i32 %77, ptr %16, align 4, !tbaa !107
  br label %54, !llvm.loop !314

78:                                               ; preds = %54
  %79 = load ptr, ptr %10, align 8, !tbaa !4
  %80 = getelementptr inbounds nuw %struct.t_mde_delta_h_coll, ptr %79, i32 0, i32 7
  %81 = load i32, ptr %80, align 8, !tbaa !156
  %82 = icmp sge i32 %81, 0
  br i1 %82, label %83, label %92

83:                                               ; preds = %78
  %84 = load ptr, ptr %10, align 8, !tbaa !4
  %85 = getelementptr inbounds nuw %struct.t_mde_delta_h_coll, ptr %84, i32 0, i32 0
  %86 = load ptr, ptr %10, align 8, !tbaa !4
  %87 = getelementptr inbounds nuw %struct.t_mde_delta_h_coll, ptr %86, i32 0, i32 7
  %88 = load i32, ptr %87, align 8, !tbaa !156
  %89 = sext i32 %88 to i64
  %90 = call noundef nonnull align 8 dereferenceable(272) ptr @_ZNSt6vectorI13t_mde_delta_hSaIS0_EEixEm(ptr noundef nonnull align 8 dereferenceable(24) %85, i64 noundef %89) #17
  %91 = load double, ptr %13, align 8, !tbaa !151
  call void @_ZL18mde_delta_h_add_dhP13t_mde_delta_hd(ptr noundef %90, double noundef %91)
  br label %92

92:                                               ; preds = %83, %78
  %93 = load ptr, ptr %10, align 8, !tbaa !4
  %94 = getelementptr inbounds nuw %struct.t_mde_delta_h_coll, ptr %93, i32 0, i32 6
  %95 = load i32, ptr %94, align 4, !tbaa !155
  %96 = icmp sge i32 %95, 0
  br i1 %96, label %97, label %106

97:                                               ; preds = %92
  %98 = load ptr, ptr %10, align 8, !tbaa !4
  %99 = getelementptr inbounds nuw %struct.t_mde_delta_h_coll, ptr %98, i32 0, i32 0
  %100 = load ptr, ptr %10, align 8, !tbaa !4
  %101 = getelementptr inbounds nuw %struct.t_mde_delta_h_coll, ptr %100, i32 0, i32 6
  %102 = load i32, ptr %101, align 4, !tbaa !155
  %103 = sext i32 %102 to i64
  %104 = call noundef nonnull align 8 dereferenceable(272) ptr @_ZNSt6vectorI13t_mde_delta_hSaIS0_EEixEm(ptr noundef nonnull align 8 dereferenceable(24) %99, i64 noundef %103) #17
  %105 = load double, ptr %12, align 8, !tbaa !151
  call void @_ZL18mde_delta_h_add_dhP13t_mde_delta_hd(ptr noundef %104, double noundef %105)
  br label %106

106:                                              ; preds = %97, %92
  %107 = load ptr, ptr %10, align 8, !tbaa !4
  %108 = getelementptr inbounds nuw %struct.t_mde_delta_h_coll, ptr %107, i32 0, i32 8
  %109 = load i32, ptr %108, align 4, !tbaa !154
  %110 = icmp sge i32 %109, 0
  br i1 %110, label %111, label %120

111:                                              ; preds = %106
  %112 = load ptr, ptr %10, align 8, !tbaa !4
  %113 = getelementptr inbounds nuw %struct.t_mde_delta_h_coll, ptr %112, i32 0, i32 0
  %114 = load ptr, ptr %10, align 8, !tbaa !4
  %115 = getelementptr inbounds nuw %struct.t_mde_delta_h_coll, ptr %114, i32 0, i32 8
  %116 = load i32, ptr %115, align 4, !tbaa !154
  %117 = sext i32 %116 to i64
  %118 = call noundef nonnull align 8 dereferenceable(272) ptr @_ZNSt6vectorI13t_mde_delta_hSaIS0_EEixEm(ptr noundef nonnull align 8 dereferenceable(24) %113, i64 noundef %117) #17
  %119 = load double, ptr %11, align 8, !tbaa !151
  call void @_ZL18mde_delta_h_add_dhP13t_mde_delta_hd(ptr noundef %118, double noundef %119)
  br label %120

120:                                              ; preds = %111, %106
  call void @llvm.lifetime.end.p0(i64 4, ptr %16) #17
  ret void
}