; Function Attrs: mustprogress uwtable
define void @_Z23mde_delta_h_coll_add_dhP18t_mde_delta_h_colldddN3gmx8ArrayRefIdEEPdd(ptr noundef captures(none) %0, double noundef %1, double noundef %2, double noundef %3, ptr readonly captures(none) %4, ptr readnone captures(none) %5, ptr noundef readonly captures(none) %6, double noundef %7) local_unnamed_addr #0 {
  %9 = getelementptr inbounds nuw i8, ptr %0, i64 72
  %10 = load i8, ptr %9, align 8, !tbaa !130, !range !141, !noundef !142
  %11 = trunc nuw i8 %10 to i1
  br i1 %11, label %14, label %12

12:                                               ; preds = %8
  store i8 1, ptr %9, align 8, !tbaa !130
  %13 = getelementptr inbounds nuw i8, ptr %0, i64 56
  store double %7, ptr %13, align 8, !tbaa !119
  br label %14

14:                                               ; preds = %12, %8
  %15 = getelementptr inbounds nuw i8, ptr %0, i64 36
  %16 = load i32, ptr %15, align 4, !tbaa !149
  %17 = icmp sgt i32 %16, 0
  br i1 %17, label %.lr.ph, label %.preheader

.lr.ph:                                           ; preds = %14
  %18 = getelementptr inbounds nuw i8, ptr %0, i64 40
  br label %23

.preheader:                                       ; preds = %23, %14
  %19 = getelementptr inbounds nuw i8, ptr %0, i64 28
  %20 = load i32, ptr %19, align 4, !tbaa !148
  %21 = icmp sgt i32 %20, 0
  br i1 %21, label %.lr.ph35, label %._crit_edge

.lr.ph35:                                         ; preds = %.preheader
  %22 = getelementptr inbounds nuw i8, ptr %0, i64 32
  br label %35

23:                                               ; preds = %.lr.ph, %23
  %indvars.iv = phi i64 [ 0, %.lr.ph ], [ %indvars.iv.next, %23 ]
  %24 = load i32, ptr %18, align 8, !tbaa !173
  %25 = trunc nuw nsw i64 %indvars.iv to i32
  %26 = add nsw i32 %24, %25
  %27 = sext i32 %26 to i64
  %28 = load ptr, ptr %0, align 8, !tbaa !170
  %29 = getelementptr inbounds nuw %struct.t_mde_delta_h, ptr %28, i64 %27
  %30 = getelementptr inbounds nuw double, ptr %4, i64 %indvars.iv
  %31 = load double, ptr %30, align 8, !tbaa !147
  tail call fastcc void @_ZL18mde_delta_h_add_dhP13t_mde_delta_hd(ptr noundef %29, double noundef %31)
  %indvars.iv.next = add nuw nsw i64 %indvars.iv, 1
  %32 = load i32, ptr %15, align 4, !tbaa !149
  %33 = sext i32 %32 to i64
  %34 = icmp slt i64 %indvars.iv.next, %33
  br i1 %34, label %23, label %.preheader, !llvm.loop !211

35:                                               ; preds = %.lr.ph35, %35
  %indvars.iv37 = phi i64 [ 0, %.lr.ph35 ], [ %indvars.iv.next38, %35 ]
  %36 = load i32, ptr %22, align 8, !tbaa !174
  %37 = trunc nuw nsw i64 %indvars.iv37 to i32
  %38 = add nsw i32 %36, %37
  %39 = sext i32 %38 to i64
  %40 = load ptr, ptr %0, align 8, !tbaa !170
  %41 = getelementptr inbounds nuw %struct.t_mde_delta_h, ptr %40, i64 %39
  %42 = getelementptr inbounds nuw double, ptr %6, i64 %indvars.iv37
  %43 = load double, ptr %42, align 8, !tbaa !147
  tail call fastcc void @_ZL18mde_delta_h_add_dhP13t_mde_delta_hd(ptr noundef %41, double noundef %43)
  %indvars.iv.next38 = add nuw nsw i64 %indvars.iv37, 1
  %44 = load i32, ptr %19, align 4, !tbaa !148
  %45 = sext i32 %44 to i64
  %46 = icmp slt i64 %indvars.iv.next38, %45
  br i1 %46, label %35, label %._crit_edge, !llvm.loop !212

._crit_edge:                                      ; preds = %35, %.preheader
  %47 = getelementptr inbounds nuw i8, ptr %0, i64 48
  %48 = load i32, ptr %47, align 8, !tbaa !152
  %49 = icmp sgt i32 %48, -1
  br i1 %49, label %50, label %54

50:                                               ; preds = %._crit_edge
  %51 = zext nneg i32 %48 to i64
  %52 = load ptr, ptr %0, align 8, !tbaa !170
  %53 = getelementptr inbounds nuw %struct.t_mde_delta_h, ptr %52, i64 %51
  tail call fastcc void @_ZL18mde_delta_h_add_dhP13t_mde_delta_hd(ptr noundef %53, double noundef %3)
  br label %54

54:                                               ; preds = %50, %._crit_edge
  %55 = getelementptr inbounds nuw i8, ptr %0, i64 44
  %56 = load i32, ptr %55, align 4, !tbaa !151
  %57 = icmp sgt i32 %56, -1
  br i1 %57, label %58, label %62

58:                                               ; preds = %54
  %59 = zext nneg i32 %56 to i64
  %60 = load ptr, ptr %0, align 8, !tbaa !170
  %61 = getelementptr inbounds nuw %struct.t_mde_delta_h, ptr %60, i64 %59
  tail call fastcc void @_ZL18mde_delta_h_add_dhP13t_mde_delta_hd(ptr noundef %61, double noundef %2)
  br label %62

62:                                               ; preds = %58, %54
  %63 = getelementptr inbounds nuw i8, ptr %0, i64 52
  %64 = load i32, ptr %63, align 4, !tbaa !150
  %65 = icmp sgt i32 %64, -1
  br i1 %65, label %66, label %70

66:                                               ; preds = %62
  %67 = zext nneg i32 %64 to i64
  %68 = load ptr, ptr %0, align 8, !tbaa !170
  %69 = getelementptr inbounds nuw %struct.t_mde_delta_h, ptr %68, i64 %67
  tail call fastcc void @_ZL18mde_delta_h_add_dhP13t_mde_delta_hd(ptr noundef %69, double noundef %1)
  br label %70

70:                                               ; preds = %66, %62
  ret void
}